target datalayout = "e-m:e-p270:32:32-p271:32:32-p272:64:64-i64:64-i128:128-f80:128-n8:16:32:64-S128"
target triple = "x86_64-pc-linux-gnu"

%struct._packet_info = type { ptr, ptr, i32, i32, %struct.nstime_t, %struct.nstime_t, %struct.nstime_t, i8, ptr, ptr, ptr, ptr, %struct._address, %struct._address, %struct._address, %struct._address, %struct._address, %struct._address, i32, ptr, i8, [3 x i8], %struct.anon, i32, i32, i32, i32, ptr, i8, ptr, ptr, i16, i16, i32, i32, i16, i32, i32, ptr, ptr, ptr, i8, i8, i16, i16, i16, i32, i16, i16, ptr, ptr, ptr, ptr, ptr, i32, i32 }
%struct.nstime_t = type { i64, i32 }
%struct._address = type { i32, i32, ptr, ptr }
%struct.anon = type { i8, [3 x i8] }
%struct._seq_analysis_item = type { i32, %struct._address, i16, %struct._address, i16, ptr, ptr, ptr, i16, i32, i32, i8, i8, i32, i32, i16, i32, ptr }
%struct._seq_analysis_info = type { ptr, i8, i32, ptr, ptr, [40 x %struct._address], [40 x i8], i32 }

; Function Attrs: null_pointer_is_valid sspstrong uwtable
define internal i32 @frame_seq_analysis_packet(ptr noundef %0, ptr noundef %1, ptr noundef %2, ptr noundef %3, i32 noundef %4) #0 {
  %6 = alloca i32, align 4
  %7 = alloca ptr, align 8
  %8 = alloca ptr, align 8
  %9 = alloca ptr, align 8
  %10 = alloca ptr, align 8
  %11 = alloca i32, align 4
  %12 = alloca ptr, align 8
  %13 = alloca ptr, align 8
  %14 = alloca i32, align 4
  store ptr %0, ptr %7, align 8
  store ptr %1, ptr %8, align 8
  store ptr %2, ptr %9, align 8
  store ptr %3, ptr %10, align 8
  store i32 %4, ptr %11, align 4
  call void @llvm.lifetime.start.p0(i64 8, ptr %12) #9
  %15 = load ptr, ptr %7, align 8
  store ptr %15, ptr %12, align 8
  call void @llvm.lifetime.start.p0(i64 8, ptr %13) #9
  %16 = load ptr, ptr %8, align 8
  %17 = load ptr, ptr %12, align 8
  %18 = call ptr @sequence_analysis_create_sai_with_addresses(ptr noundef %16, ptr noundef %17)
  store ptr %18, ptr %13, align 8
  %19 = load ptr, ptr %13, align 8
  %20 = icmp ne ptr %19, null
  br i1 %20, label %22, label %21

21:                                               ; preds = %5
  store i32 0, ptr %6, align 4
  store i32 1, ptr %14, align 4
  br label %54

22:                                               ; preds = %5
  %23 = load ptr, ptr %8, align 8
  %24 = getelementptr inbounds nuw %struct._packet_info, ptr %23, i32 0, i32 3
  %25 = load i32, ptr %24, align 4
  %26 = load ptr, ptr %13, align 8
  %27 = getelementptr inbounds nuw %struct._seq_analysis_item, ptr %26, i32 0, i32 0
  store i32 %25, ptr %27, align 8
  %28 = load ptr, ptr %8, align 8
  %29 = load ptr, ptr %13, align 8
  call void @sequence_analysis_use_color_filter(ptr noundef %28, ptr noundef %29)
  %30 = load ptr, ptr %8, align 8
  %31 = getelementptr inbounds nuw %struct._packet_info, ptr %30, i32 0, i32 24
  %32 = load i32, ptr %31, align 4
  %33 = trunc i32 %32 to i16
  %34 = load ptr, ptr %13, align 8
  %35 = getelementptr inbounds nuw %struct._seq_analysis_item, ptr %34, i32 0, i32 2
  store i16 %33, ptr %35, align 8
  %36 = load ptr, ptr %8, align 8
  %37 = getelementptr inbounds nuw %struct._packet_info, ptr %36, i32 0, i32 25
  %38 = load i32, ptr %37, align 8
  %39 = trunc i32 %38 to i16
  %40 = load ptr, ptr %13, align 8
  %41 = getelementptr inbounds nuw %struct._seq_analysis_item, ptr %40, i32 0, i32 4
  store i16 %39, ptr %41, align 8
  %42 = load ptr, ptr %8, align 8
  %43 = load ptr, ptr %13, align 8
  call void @sequence_analysis_use_col_info_as_label_comment(ptr noundef %42, ptr noundef %43)
  %44 = load ptr, ptr %13, align 8
  %45 = getelementptr inbounds nuw %struct._seq_analysis_item, ptr %44, i32 0, i32 15
  store i16 1, ptr %45, align 8
  %46 = load ptr, ptr %13, align 8
  %47 = getelementptr inbounds nuw %struct._seq_analysis_item, ptr %46, i32 0, i32 8
  store i16 0, ptr %47, align 8
  %48 = load ptr, ptr %13, align 8
  %49 = getelementptr inbounds nuw %struct._seq_analysis_item, ptr %48, i32 0, i32 12
  store i8 1, ptr %49, align 1
  %50 = load ptr, ptr %12, align 8
  %51 = getelementptr inbounds nuw %struct._seq_analysis_info, ptr %50, i32 0, i32 3
  %52 = load ptr, ptr %51, align 8
  %53 = load ptr, ptr %13, align 8
  call void @g_queue_push_tail(ptr noundef %52, ptr noundef %53)
  store i32 1, ptr %6, align 4
  store i32 1, ptr %14, align 4
  br label %54

54:                                               ; preds = %22, %21
  call void @llvm.lifetime.end.p0(i64 8, ptr %13) #9
  call void @llvm.lifetime.end.p0(i64 8, ptr %12) #9
  %55 = load i32, ptr %6, align 4
  ret i32 %55
}