; Function Attrs: null_pointer_is_valid sspstrong uwtable
define internal range(i32 0, 2) i32 @frame_seq_analysis_packet(ptr noundef %0, ptr noundef %1, ptr readnone captures(none) %2, ptr readnone captures(none) %3, i32 %4) #0 {
  %6 = tail call ptr @sequence_analysis_create_sai_with_addresses(ptr noundef %1, ptr noundef %0)
  %.not = icmp eq ptr %6, null
  br i1 %.not, label %23, label %7

7:                                                ; preds = %5
  %8 = getelementptr inbounds nuw i8, ptr %1, i64 20
  %9 = load i32, ptr %8, align 4
  store i32 %9, ptr %6, align 8
  tail call void @sequence_analysis_use_color_filter(ptr noundef %1, ptr noundef nonnull %6)
  %10 = getelementptr inbounds nuw i8, ptr %1, i64 284
  %11 = load i32, ptr %10, align 4
  %12 = trunc i32 %11 to i16
  %13 = getelementptr inbounds nuw i8, ptr %6, i64 32
  store i16 %12, ptr %13, align 8
  %14 = getelementptr inbounds nuw i8, ptr %1, i64 288
  %15 = load i32, ptr %14, align 8
  %16 = trunc i32 %15 to i16
  %17 = getelementptr inbounds nuw i8, ptr %6, i64 64
  store i16 %16, ptr %17, align 8
  tail call void @sequence_analysis_use_col_info_as_label_comment(ptr noundef %1, ptr noundef nonnull %6)
  %18 = getelementptr inbounds nuw i8, ptr %6, i64 120
  store i16 1, ptr %18, align 8
  %19 = getelementptr inbounds nuw i8, ptr %6, i64 96
  store i16 0, ptr %19, align 8
  %20 = getelementptr inbounds nuw i8, ptr %6, i64 109
  store i8 1, ptr %20, align 1
  %21 = getelementptr inbounds nuw i8, ptr %0, i64 16
  %22 = load ptr, ptr %21, align 8
  tail call void @g_queue_push_tail(ptr noundef %22, ptr noundef nonnull %6)
  br label %23

23:                                               ; preds = %5, %7
  %.0 = phi i32 [ 1, %7 ], [ 0, %5 ]
  ret i32 %.0
}